; Function Attrs: nounwind uwtable
define internal void @branchesiter_dealloc(ptr noundef %0) #2 {
  %2 = getelementptr inbounds nuw i8, ptr %0, i64 16
  %3 = load ptr, ptr %2, align 8, !tbaa !191
  %4 = load i32, ptr %3, align 8, !tbaa !33
  %.not.i = icmp sgt i32 %4, -1
  br i1 %.not.i, label %5, label %Py_DECREF.exit

5:                                                ; preds = %1
  %6 = add nsw i32 %4, -1
  store i32 %6, ptr %3, align 8, !tbaa !33
  %7 = icmp eq i32 %6, 0
  br i1 %7, label %8, label %Py_DECREF.exit

8:                                                ; preds = %5
  tail call void @_Py_Dealloc(ptr noundef nonnull %3) #11
  br label %Py_DECREF.exit

Py_DECREF.exit:                                   ; preds = %1, %5, %8
  tail call void @PyObject_Free(ptr noundef nonnull %0) #11
  ret void
}